(S'0'
p0
S'20000'
p1
g0
S'360'
p2
S'0.018'
p3
S'180'
p4
S'10000'
p5
S'180.0'
p6
S'200'
p7
g0
S'20000'
p8
g0
S'360'
p9
S'0.018'
p10
S'180'
p11
S'10000'
p12
S'180.0'
p13
S'200'
p14
g0
S'20000'
p15
g0
S'360'
p16
S'0.018'
p17
S'180'
p18
S'10000'
p19
S'180.0'
p20
S'200'
p21
g0
S'20000'
p22
g0
S'360'
p23
S'0.018'
p24
S'180'
p25
S'10000'
p26
S'180.0'
p27
S'200'
p28
g0
S'20000'
p29
g0
S'360'
p30
S'0.018'
p31
S'180'
p32
S'10000'
p33
S'180.0'
p34
S'200'
p35
g0
S'20000'
p36
g0
S'360'
p37
S'0.018'
p38
S'180'
p39
S'10000'
p40
S'180.0'
p41
S'200'
p42
S'1'
p43
S'new'
p44
g0
S'180'
p45
g0
S'180'
p46
g0
S'180'
p47
g0
S'180'
p48
tp49
.